target datalayout = "e-m:e-p270:32:32-p271:32:32-p272:64:64-i64:64-i128:128-f80:128-n8:16:32:64-S128"
target triple = "x86_64-pc-linux-gnu"

%"class.llvm::StringRef" = type { ptr, i64 }
%"class.std::__cxx11::basic_string" = type { %"struct.std::__cxx11::basic_string<char>::_Alloc_hider", i64, %union.anon }
%"struct.std::__cxx11::basic_string<char>::_Alloc_hider" = type { ptr }
%union.anon = type { i64, [8 x i8] }
%"class.llvm::SmallVectorImpl" = type { %"class.llvm::SmallVectorTemplateBase" }
%"class.llvm::SmallVectorTemplateBase" = type { %"class.llvm::SmallVectorTemplateCommon" }
%"class.llvm::SmallVectorTemplateCommon" = type { %"class.llvm::SmallVectorBase" }
%"class.llvm::SmallVectorBase" = type { ptr, i32, i32 }
%"struct.clang::format::FormatToken" = type <{ %"class.clang::Token", %"class.llvm::StringRef", %"class.std::shared_ptr.127", %"class.clang::SourceRange", i8, i16, i8, i32, i32, i32, i32, i32, i32, i32, i32, i32, i16, [2 x i8], i32, i32, i32, i32, i32, i32, i32, i32, i32, i32, [4 x i8], %"class.llvm::SmallVector.130", i32, i32, ptr, ptr, ptr, ptr, i8, i8, i8, i8, i8, i8, [2 x i8], %"class.llvm::SmallVector.135", %"class.std::optional.140", i8, [7 x i8] }>
%"class.clang::Token" = type <{ i32, i32, ptr, i16, i16, [4 x i8] }>
%"class.std::shared_ptr.127" = type { %"class.std::__shared_ptr.128" }
%"class.std::__shared_ptr.128" = type { ptr, %"class.std::__shared_count" }
%"class.std::__shared_count" = type { ptr }
%"class.clang::SourceRange" = type { %"class.clang::SourceLocation", %"class.clang::SourceLocation" }
%"class.clang::SourceLocation" = type { i32 }
%"class.llvm::SmallVector.130" = type { %"class.llvm::SmallVectorImpl.131", %"struct.llvm::SmallVectorStorage.134" }
%"class.llvm::SmallVectorImpl.131" = type { %"class.llvm::SmallVectorTemplateBase.132" }
%"class.llvm::SmallVectorTemplateBase.132" = type { %"class.llvm::SmallVectorTemplateCommon.133" }
%"class.llvm::SmallVectorTemplateCommon.133" = type { %"class.llvm::SmallVectorBase" }
%"struct.llvm::SmallVectorStorage.134" = type { [16 x i8] }
%"class.llvm::SmallVector.135" = type { %"class.llvm::SmallVectorImpl.136", %"struct.llvm::SmallVectorStorage.139" }
%"class.llvm::SmallVectorImpl.136" = type { %"class.llvm::SmallVectorTemplateBase.137" }
%"class.llvm::SmallVectorTemplateBase.137" = type { %"class.llvm::SmallVectorTemplateCommon.138" }
%"class.llvm::SmallVectorTemplateCommon.138" = type { %"class.llvm::SmallVectorBase" }
%"struct.llvm::SmallVectorStorage.139" = type { [8 x i8] }
%"class.std::optional.140" = type { %"struct.std::_Optional_base.141" }
%"struct.std::_Optional_base.141" = type { %"struct.std::_Optional_payload.143" }
%"struct.std::_Optional_payload.143" = type { %"struct.std::_Optional_payload.base.147", [7 x i8] }
%"struct.std::_Optional_payload.base.147" = type { %"struct.std::_Optional_payload_base.base.146" }
%"struct.std::_Optional_payload_base.base.146" = type <{ %"union.std::_Optional_payload_base<clang::format::MacroExpansion>::_Storage", i8 }>
%"union.std::_Optional_payload_base<clang::format::MacroExpansion>::_Storage" = type { %"struct.clang::format::MacroExpansion" }
%"struct.clang::format::MacroExpansion" = type { i32, %"class.llvm::SmallVector.30", i32, i32 }
%"class.llvm::SmallVector.30" = type { %"class.llvm::SmallVectorImpl.31", %"struct.llvm::SmallVectorStorage.34" }
%"class.llvm::SmallVectorImpl.31" = type { %"class.llvm::SmallVectorTemplateBase.32" }
%"class.llvm::SmallVectorTemplateBase.32" = type { %"class.llvm::SmallVectorTemplateCommon.33" }
%"class.llvm::SmallVectorTemplateCommon.33" = type { %"class.llvm::SmallVectorBase" }
%"struct.llvm::SmallVectorStorage.34" = type { [8 x i8] }
%"class.llvm::ArrayRef" = type { ptr, i64 }
%"class.clang::format::UnwrappedLineParser" = type { %"class.std::unique_ptr", %"class.llvm::SmallVector", %"class.llvm::DenseMap", %"class.llvm::DenseMap.2", i8, [7 x i8], %"class.std::optional", %"class.llvm::SmallVector.30", ptr, i8, %"class.llvm::SmallVector", %"class.llvm::SmallVector.35", ptr, %"class.llvm::BitVector", ptr, i8, [7 x i8], %"class.clang::LangOptions", ptr, %"class.llvm::Regex", ptr, ptr, %"class.llvm::ArrayRef", %"class.llvm::SmallVector.64", %"class.llvm::SmallVector.70", i8, %"class.llvm::SmallVector.72", i32, %"class.llvm::SmallVector.77", %"class.llvm::SmallVector.77", %"class.std::stack", i32, ptr, i32, %"class.clang::format::MacroExpander" }
%"class.std::unique_ptr" = type { %"struct.std::__uniq_ptr_data" }
%"struct.std::__uniq_ptr_data" = type { %"class.std::__uniq_ptr_impl" }
%"class.std::__uniq_ptr_impl" = type { %"class.std::tuple" }
%"class.std::tuple" = type { %"struct.std::_Tuple_impl" }
%"struct.std::_Tuple_impl" = type { %"struct.std::_Head_base.1" }
%"struct.std::_Head_base.1" = type { ptr }
%"class.llvm::DenseMap" = type <{ ptr, i32, i32, i32, [4 x i8] }>
%"class.llvm::DenseMap.2" = type <{ ptr, i32, i32, i32, [4 x i8] }>
%"class.std::optional" = type { %"struct.std::_Optional_base" }
%"struct.std::_Optional_base" = type { %"struct.std::_Optional_payload" }
%"struct.std::_Optional_payload" = type { %"struct.std::_Optional_payload.base", [7 x i8] }
%"struct.std::_Optional_payload.base" = type { %"struct.std::_Optional_payload_base.base" }
%"struct.std::_Optional_payload_base.base" = type <{ %"union.std::_Optional_payload_base<clang::format::MacroCallReconstructor>::_Storage", i8 }>
%"union.std::_Optional_payload_base<clang::format::MacroCallReconstructor>::_Storage" = type { %"class.clang::format::MacroCallReconstructor" }
%"class.clang::format::MacroCallReconstructor" = type { %"struct.clang::format::MacroCallReconstructor::ReconstructedLine", %"class.llvm::SmallVector.11", %"class.llvm::DenseMap.16", %"class.llvm::SmallVector.19", %"class.llvm::SmallVector.24", ptr }
%"struct.clang::format::MacroCallReconstructor::ReconstructedLine" = type { i32, %"class.llvm::SmallVector.6" }
%"class.llvm::SmallVector.6" = type { %"class.llvm::SmallVectorImpl.7", %"struct.llvm::SmallVectorStorage.10" }
%"class.llvm::SmallVectorImpl.7" = type { %"class.llvm::SmallVectorTemplateBase.8" }
%"class.llvm::SmallVectorTemplateBase.8" = type { %"class.llvm::SmallVectorTemplateCommon.9" }
%"class.llvm::SmallVectorTemplateCommon.9" = type { %"class.llvm::SmallVectorBase" }
%"struct.llvm::SmallVectorStorage.10" = type { [48 x i8] }
%"class.llvm::SmallVector.11" = type { %"class.llvm::SmallVectorImpl.12", %"struct.llvm::SmallVectorStorage.15" }
%"class.llvm::SmallVectorImpl.12" = type { %"class.llvm::SmallVectorTemplateBase.13" }
%"class.llvm::SmallVectorTemplateBase.13" = type { %"class.llvm::SmallVectorTemplateCommon.14" }
%"class.llvm::SmallVectorTemplateCommon.14" = type { %"class.llvm::SmallVectorBase" }
%"struct.llvm::SmallVectorStorage.15" = type { [48 x i8] }
%"class.llvm::DenseMap.16" = type <{ ptr, i32, i32, i32, [4 x i8] }>
%"class.llvm::SmallVector.19" = type { %"class.llvm::SmallVectorImpl.20", %"struct.llvm::SmallVectorStorage.23" }
%"class.llvm::SmallVectorImpl.20" = type { %"class.llvm::SmallVectorTemplateBase.21" }
%"class.llvm::SmallVectorTemplateBase.21" = type { %"class.llvm::SmallVectorTemplateCommon.22" }
%"class.llvm::SmallVectorTemplateCommon.22" = type { %"class.llvm::SmallVectorBase" }
%"struct.llvm::SmallVectorStorage.23" = type { [48 x i8] }
%"class.llvm::SmallVector.24" = type { %"class.llvm::SmallVectorImpl.25", %"struct.llvm::SmallVectorStorage.28" }
%"class.llvm::SmallVectorImpl.25" = type { %"class.llvm::SmallVectorTemplateBase.26" }
%"class.llvm::SmallVectorTemplateBase.26" = type { %"class.llvm::SmallVectorTemplateCommon.27" }
%"class.llvm::SmallVectorTemplateCommon.27" = type { %"class.llvm::SmallVectorBase" }
%"struct.llvm::SmallVectorStorage.28" = type { [48 x i8] }
%"class.llvm::SmallVector" = type { %"class.llvm::SmallVectorImpl", %"struct.llvm::SmallVectorStorage" }
%"struct.llvm::SmallVectorStorage" = type { [576 x i8] }
%"class.llvm::SmallVector.35" = type { %"class.llvm::SmallVectorImpl", %"struct.llvm::SmallVectorStorage.36" }
%"struct.llvm::SmallVectorStorage.36" = type { [288 x i8] }
%"class.llvm::BitVector" = type <{ %"class.llvm::SmallVector.37", i32, [4 x i8] }>
%"class.llvm::SmallVector.37" = type { %"class.llvm::SmallVectorImpl.38", %"struct.llvm::SmallVectorStorage.41" }
%"class.llvm::SmallVectorImpl.38" = type { %"class.llvm::SmallVectorTemplateBase.39" }
%"class.llvm::SmallVectorTemplateBase.39" = type { %"class.llvm::SmallVectorTemplateCommon.40" }
%"class.llvm::SmallVectorTemplateCommon.40" = type { %"class.llvm::SmallVectorBase" }
%"struct.llvm::SmallVectorStorage.41" = type { [48 x i8] }
%"class.clang::LangOptions" = type <{ %"class.clang::LangOptionsBase.base", [2 x i8], i32, %"struct.clang::SanitizerSet", i8, [7 x i8], %"class.std::vector", %"class.std::vector", %"class.std::vector", %"class.std::vector", %"class.std::vector", %"class.clang::ObjCRuntime", i32, %"class.std::__cxx11::basic_string", %"class.std::__cxx11::basic_string", %"class.std::__cxx11::basic_string", %"class.std::__cxx11::basic_string", %"class.std::vector", %"struct.clang::CommentOptions", %"class.std::vector", %"class.std::map", %"class.std::vector.51", %"class.std::__cxx11::basic_string", %"class.std::__cxx11::basic_string", %"class.std::optional.56", i8, [3 x i8], i32, i32, [4 x i8], %"class.std::vector", %"class.std::__cxx11::basic_string", i8, i8, [6 x i8], %"class.std::__cxx11::basic_string", i8, [7 x i8] }>
%"class.clang::LangOptionsBase.base" = type <{ i64, i64, i64, i64, i64, i64, i64, i64, i64, i64, i64, i64, i64, i64, i64, i64, i64, i64, i64, i64, i64, i64, i64, i64, i64, i16 }>
%"struct.clang::SanitizerSet" = type { %"class.clang::SanitizerMask" }
%"class.clang::SanitizerMask" = type { [2 x i64] }
%"class.clang::ObjCRuntime" = type <{ i32, %"class.llvm::VersionTuple" }>
%"class.llvm::VersionTuple" = type { i64, i64 }
%"struct.clang::CommentOptions" = type <{ %"class.std::vector", i8, [7 x i8] }>
%"class.std::map" = type { %"class.std::_Rb_tree" }
%"class.std::_Rb_tree" = type { %"struct.std::_Rb_tree<std::__cxx11::basic_string<char>, std::pair<const std::__cxx11::basic_string<char>, std::__cxx11::basic_string<char>>, std::_Select1st<std::pair<const std::__cxx11::basic_string<char>, std::__cxx11::basic_string<char>>>, std::greater<std::__cxx11::basic_string<char>>>::_Rb_tree_impl" }
%"struct.std::_Rb_tree<std::__cxx11::basic_string<char>, std::pair<const std::__cxx11::basic_string<char>, std::__cxx11::basic_string<char>>, std::_Select1st<std::pair<const std::__cxx11::basic_string<char>, std::__cxx11::basic_string<char>>>, std::greater<std::__cxx11::basic_string<char>>>::_Rb_tree_impl" = type { [8 x i8], %"struct.std::_Rb_tree_header" }
%"struct.std::_Rb_tree_header" = type { %"struct.std::_Rb_tree_node_base", i64 }
%"struct.std::_Rb_tree_node_base" = type { i32, ptr, ptr, ptr }
%"class.std::vector.51" = type { %"struct.std::_Vector_base.52" }
%"struct.std::_Vector_base.52" = type { %"struct.std::_Vector_base<llvm::Triple, std::allocator<llvm::Triple>>::_Vector_impl" }
%"struct.std::_Vector_base<llvm::Triple, std::allocator<llvm::Triple>>::_Vector_impl" = type { %"struct.std::_Vector_base<llvm::Triple, std::allocator<llvm::Triple>>::_Vector_impl_data" }
%"struct.std::_Vector_base<llvm::Triple, std::allocator<llvm::Triple>>::_Vector_impl_data" = type { ptr, ptr, ptr }
%"class.std::optional.56" = type { %"struct.std::_Optional_base.57" }
%"struct.std::_Optional_base.57" = type { %"struct.std::_Optional_payload.59" }
%"struct.std::_Optional_payload.59" = type { %"struct.std::_Optional_payload_base.base.61", [3 x i8] }
%"struct.std::_Optional_payload_base.base.61" = type <{ %"union.std::_Optional_payload_base<clang::TargetCXXABI::Kind>::_Storage", i8 }>
%"union.std::_Optional_payload_base<clang::TargetCXXABI::Kind>::_Storage" = type { i32 }
%"class.std::vector" = type { %"struct.std::_Vector_base" }
%"struct.std::_Vector_base" = type { %"struct.std::_Vector_base<std::__cxx11::basic_string<char>, std::allocator<std::__cxx11::basic_string<char>>>::_Vector_impl" }
%"struct.std::_Vector_base<std::__cxx11::basic_string<char>, std::allocator<std::__cxx11::basic_string<char>>>::_Vector_impl" = type { %"struct.std::_Vector_base<std::__cxx11::basic_string<char>, std::allocator<std::__cxx11::basic_string<char>>>::_Vector_impl_data" }
%"struct.std::_Vector_base<std::__cxx11::basic_string<char>, std::allocator<std::__cxx11::basic_string<char>>>::_Vector_impl_data" = type { ptr, ptr, ptr }
%"class.llvm::Regex" = type <{ ptr, i32, [4 x i8] }>
%"class.llvm::SmallVector.64" = type { %"class.llvm::SmallVectorImpl.65", %"struct.llvm::SmallVectorStorage.69" }
%"class.llvm::SmallVectorImpl.65" = type { %"class.llvm::SmallVectorTemplateBase.66" }
%"class.llvm::SmallVectorTemplateBase.66" = type { %"class.llvm::SmallVectorTemplateCommon.67" }
%"class.llvm::SmallVectorTemplateCommon.67" = type { %"class.llvm::SmallVectorBase.68" }
%"class.llvm::SmallVectorBase.68" = type { ptr, i64, i64 }
%"struct.llvm::SmallVectorStorage.69" = type { [8 x i8] }
%"class.llvm::SmallVector.70" = type <{ %"class.llvm::SmallVectorImpl.65", %"struct.llvm::SmallVectorStorage.71", [4 x i8] }>
%"struct.llvm::SmallVectorStorage.71" = type { [4 x i8] }
%"class.llvm::SmallVector.72" = type { %"class.llvm::SmallVectorImpl.73", %"struct.llvm::SmallVectorStorage.76" }
%"class.llvm::SmallVectorImpl.73" = type { %"class.llvm::SmallVectorTemplateBase.74" }
%"class.llvm::SmallVectorTemplateBase.74" = type { %"class.llvm::SmallVectorTemplateCommon.75" }
%"class.llvm::SmallVectorTemplateCommon.75" = type { %"class.llvm::SmallVectorBase" }
%"struct.llvm::SmallVectorStorage.76" = type { [256 x i8] }
%"class.llvm::SmallVector.77" = type { %"class.llvm::SmallVectorImpl.78", %"struct.llvm::SmallVectorStorage.81" }
%"class.llvm::SmallVectorImpl.78" = type { %"class.llvm::SmallVectorTemplateBase.79" }
%"class.llvm::SmallVectorTemplateBase.79" = type { %"class.llvm::SmallVectorTemplateCommon.80" }
%"class.llvm::SmallVectorTemplateCommon.80" = type { %"class.llvm::SmallVectorBase" }
%"struct.llvm::SmallVectorStorage.81" = type { [32 x i8] }
%"class.std::stack" = type { %"class.std::deque" }
%"class.std::deque" = type { %"class.std::_Deque_base" }
%"class.std::_Deque_base" = type { %"struct.std::_Deque_base<int, std::allocator<int>>::_Deque_impl" }
%"struct.std::_Deque_base<int, std::allocator<int>>::_Deque_impl" = type { %"struct.std::_Deque_base<int, std::allocator<int>>::_Deque_impl_data" }
%"struct.std::_Deque_base<int, std::allocator<int>>::_Deque_impl_data" = type { ptr, i64, %"struct.std::_Deque_iterator", %"struct.std::_Deque_iterator" }
%"struct.std::_Deque_iterator" = type { ptr, ptr, ptr, ptr }
%"class.clang::format::MacroExpander" = type { ptr, ptr, ptr, ptr, %"class.llvm::SmallVector.85", %"class.llvm::StringMap", %"class.llvm::StringMap.90" }
%"class.llvm::SmallVector.85" = type { %"class.llvm::SmallVectorImpl.86", %"struct.llvm::SmallVectorStorage.89" }
%"class.llvm::SmallVectorImpl.86" = type { %"class.llvm::SmallVectorTemplateBase.87" }
%"class.llvm::SmallVectorTemplateBase.87" = type { %"class.llvm::SmallVectorTemplateCommon.88" }
%"class.llvm::SmallVectorTemplateCommon.88" = type { %"class.llvm::SmallVectorBase" }
%"struct.llvm::SmallVectorStorage.89" = type { [48 x i8] }
%"class.llvm::StringMap" = type { %"class.llvm::StringMapImpl" }
%"class.llvm::StringMapImpl" = type { ptr, i32, i32, i32, i32 }
%"class.llvm::StringMap.90" = type { %"class.llvm::StringMapImpl" }
%"struct.clang::format::FormatStyle" = type { i8, i32, i8, i8, %"struct.clang::format::FormatStyle::AlignConsecutiveStyle", %"struct.clang::format::FormatStyle::AlignConsecutiveStyle", %"struct.clang::format::FormatStyle::AlignConsecutiveStyle", %"struct.clang::format::FormatStyle::AlignConsecutiveStyle", %"struct.clang::format::FormatStyle::ShortCaseStatementsAlignmentStyle", %"struct.clang::format::FormatStyle::AlignConsecutiveStyle", %"struct.clang::format::FormatStyle::AlignConsecutiveStyle", %"struct.clang::format::FormatStyle::AlignConsecutiveStyle", i8, i8, %"struct.clang::format::FormatStyle::TrailingCommentsAlignmentStyle", i8, i8, i8, i8, i8, i8, i8, i8, i8, i8, i8, i8, i8, i8, %"class.std::vector", i8, i8, i8, i8, %"class.std::optional.91", %"struct.clang::format::FormatStyle::BraceWrappingFlags", i8, i8, i8, i8, i8, i8, i8, i8, i8, i8, i8, i8, i8, i8, i32, %"class.std::__cxx11::basic_string", i8, i8, i8, i32, i32, i8, i8, i8, i8, i8, i8, i8, %"class.std::vector", %"struct.clang::tooling::IncludeStyle", %"class.std::vector", i8, i8, i8, i8, i8, i8, i8, i32, i8, i8, i8, i8, %"struct.clang::format::FormatStyle::IntegerLiteralSeparatorStyle", %"class.std::vector", i8, i8, %"struct.clang::format::FormatStyle::KeepEmptyLinesStyle", i8, i8, i8, %"class.std::__cxx11::basic_string", %"class.std::__cxx11::basic_string", %"class.std::vector", i32, i8, %"class.std::vector", i8, i32, i8, %"class.std::vector", i8, i8, i8, i32, i32, i32, i32, i32, i32, i32, i32, i32, i32, i32, i8, i32, i8, %"class.std::vector", %"class.std::vector.104", i8, i8, i8, i8, i8, i8, i8, i8, i32, i8, i8, i8, i8, i8, i8, i8, i8, i8, i8, i8, i8, i8, i8, i8, %"struct.clang::format::FormatStyle::SpaceBeforeParensCustom", i8, i8, i8, i32, i8, i8, %"struct.clang::format::FormatStyle::SpacesInLineComment", i8, %"struct.clang::format::FormatStyle::SpacesInParensCustom", i8, i8, %"class.std::vector", %"class.std::vector", %"class.std::vector", i8, i32, %"class.std::vector", %"class.std::vector", i8, i8, %"class.std::vector", %"struct.clang::format::FormatStyle::FormatStyleSet" }
%"struct.clang::format::FormatStyle::ShortCaseStatementsAlignmentStyle" = type { i8, i8, i8, i8, i8 }
%"struct.clang::format::FormatStyle::AlignConsecutiveStyle" = type { i8, i8, i8, i8, i8, i8 }
%"struct.clang::format::FormatStyle::TrailingCommentsAlignmentStyle" = type { i8, i32 }
%"class.std::optional.91" = type { %"struct.std::_Optional_base.92" }
%"struct.std::_Optional_base.92" = type { %"struct.std::_Optional_payload.94" }
%"struct.std::_Optional_payload.94" = type { %"struct.std::_Optional_payload_base.base.96", [3 x i8] }
%"struct.std::_Optional_payload_base.base.96" = type <{ %"union.std::_Optional_payload_base<unsigned int>::_Storage", i8 }>
%"union.std::_Optional_payload_base<unsigned int>::_Storage" = type { i32 }
%"struct.clang::format::FormatStyle::BraceWrappingFlags" = type { i8, i8, i8, i8, i8, i8, i8, i8, i8, i8, i8, i8, i8, i8, i8, i8, i8, i8 }
%"struct.clang::tooling::IncludeStyle" = type <{ i32, [4 x i8], %"class.std::vector.99", %"class.std::__cxx11::basic_string", %"class.std::__cxx11::basic_string", i8, [7 x i8] }>
%"class.std::vector.99" = type { %"struct.std::_Vector_base.100" }
%"struct.std::_Vector_base.100" = type { %"struct.std::_Vector_base<clang::tooling::IncludeStyle::IncludeCategory, std::allocator<clang::tooling::IncludeStyle::IncludeCategory>>::_Vector_impl" }
%"struct.std::_Vector_base<clang::tooling::IncludeStyle::IncludeCategory, std::allocator<clang::tooling::IncludeStyle::IncludeCategory>>::_Vector_impl" = type { %"struct.std::_Vector_base<clang::tooling::IncludeStyle::IncludeCategory, std::allocator<clang::tooling::IncludeStyle::IncludeCategory>>::_Vector_impl_data" }
%"struct.std::_Vector_base<clang::tooling::IncludeStyle::IncludeCategory, std::allocator<clang::tooling::IncludeStyle::IncludeCategory>>::_Vector_impl_data" = type { ptr, ptr, ptr }
%"struct.clang::format::FormatStyle::IntegerLiteralSeparatorStyle" = type { i8, i8, i8, i8, i8, i8 }
%"struct.clang::format::FormatStyle::KeepEmptyLinesStyle" = type { i8, i8, i8 }
%"class.std::vector.104" = type { %"struct.std::_Vector_base.105" }
%"struct.std::_Vector_base.105" = type { %"struct.std::_Vector_base<clang::format::FormatStyle::RawStringFormat, std::allocator<clang::format::FormatStyle::RawStringFormat>>::_Vector_impl" }
%"struct.std::_Vector_base<clang::format::FormatStyle::RawStringFormat, std::allocator<clang::format::FormatStyle::RawStringFormat>>::_Vector_impl" = type { %"struct.std::_Vector_base<clang::format::FormatStyle::RawStringFormat, std::allocator<clang::format::FormatStyle::RawStringFormat>>::_Vector_impl_data" }
%"struct.std::_Vector_base<clang::format::FormatStyle::RawStringFormat, std::allocator<clang::format::FormatStyle::RawStringFormat>>::_Vector_impl_data" = type { ptr, ptr, ptr }
%"struct.clang::format::FormatStyle::SpaceBeforeParensCustom" = type { i8, i8, i8, i8, i8, i8, i8, i8, i8, i8 }
%"struct.clang::format::FormatStyle::SpacesInLineComment" = type { i32, i32 }
%"struct.clang::format::FormatStyle::SpacesInParensCustom" = type { i8, i8, i8, i8, i8 }
%"struct.clang::format::FormatStyle::FormatStyleSet" = type { %"class.std::shared_ptr" }
%"class.std::shared_ptr" = type { %"class.std::__shared_ptr" }
%"class.std::__shared_ptr" = type { ptr, %"class.std::__shared_count" }

; Function Attrs: mustprogress nounwind uwtable
define linkonce_odr hidden noundef zeroext i1 @_ZNK5clang5Token2isENS_3tok9TokenKindE(ptr noundef nonnull align 8 dereferenceable(20) %0, i16 noundef zeroext %1) #0 comdat align 2 {
  %3 = alloca ptr, align 8
  %4 = alloca i16, align 2
  store ptr %0, ptr %3, align 8
  store i16 %1, ptr %4, align 2
  %5 = load ptr, ptr %3, align 8
  %6 = getelementptr inbounds nuw %"class.clang::Token", ptr %5, i32 0, i32 3
  %7 = load i16, ptr %6, align 8
  %8 = zext i16 %7 to i32
  %9 = load i16, ptr %4, align 2
  %10 = zext i16 %9 to i32
  %11 = icmp eq i32 %8, %10
  ret i1 %11
}

; Function Attrs: mustprogress nounwind uwtable
define linkonce_odr hidden noundef zeroext i1 @_ZNK5clang6format11FormatToken2isENS_3tok9TokenKindE(ptr noundef nonnull align 8 dereferenceable(305) %0, i16 noundef zeroext %1) #0 comdat align 2 {
  %3 = alloca ptr, align 8
  %4 = alloca i16, align 2
  store ptr %0, ptr %3, align 8
  store i16 %1, ptr %4, align 2
  %5 = load ptr, ptr %3, align 8
  %6 = getelementptr inbounds nuw %"struct.clang::format::FormatToken", ptr %5, i32 0, i32 0
  %7 = load i16, ptr %4, align 2
  %8 = call noundef zeroext i1 @_ZNK5clang5Token2isENS_3tok9TokenKindE(ptr noundef nonnull align 8 dereferenceable(20) %6, i16 noundef zeroext %7)
  ret i1 %8
}

; Function Attrs: mustprogress nounwind uwtable
define linkonce_odr hidden noundef zeroext i1 @_ZNK5clang6format11FormatStyle8isCSharpEv(ptr noundef nonnull align 8 dereferenceable(936) %0) #0 comdat align 2 {
  %2 = alloca ptr, align 8
  store ptr %0, ptr %2, align 8
  %3 = load ptr, ptr %2, align 8
  %4 = getelementptr inbounds nuw %"struct.clang::format::FormatStyle", ptr %3, i32 0, i32 85
  %5 = load i8, ptr %4, align 2
  %6 = sext i8 %5 to i32
  %7 = icmp eq i32 %6, 2
  ret i1 %7
}

; Function Attrs: mustprogress nounwind uwtable
define linkonce_odr hidden noundef zeroext i1 @_ZNK5clang6format11FormatStyle12isJavaScriptEv(ptr noundef nonnull align 8 dereferenceable(936) %0) #0 comdat align 2 {
  %2 = alloca ptr, align 8
  store ptr %0, ptr %2, align 8
  %3 = load ptr, ptr %2, align 8
  %4 = getelementptr inbounds nuw %"struct.clang::format::FormatStyle", ptr %3, i32 0, i32 85
  %5 = load i8, ptr %4, align 2
  %6 = sext i8 %5 to i32
  %7 = icmp eq i32 %6, 4
  ret i1 %7
}

; Function Attrs: mustprogress nounwind uwtable
define dso_local noundef zeroext i1 @_ZN5clang6format19UnwrappedLineParser15parseStructLikeEv(ptr noundef nonnull align 8 dereferenceable(3592) %0) #0 align 2 {
  %2 = alloca i1, align 1
  %3 = alloca ptr, align 8
  store ptr %0, ptr %3, align 8
  %4 = load ptr, ptr %3, align 8
  call void @_ZN5clang6format19UnwrappedLineParser11parseRecordEb(ptr noundef nonnull align 8 dereferenceable(3592) %4, i1 noundef zeroext false)
  %5 = getelementptr inbounds nuw %"class.clang::format::UnwrappedLineParser", ptr %4, i32 0, i32 14
  %6 = load ptr, ptr %5, align 8
  %7 = getelementptr inbounds nuw %"struct.clang::format::FormatStyle", ptr %6, i32 0, i32 85
  %8 = load i8, ptr %7, align 2
  %9 = sext i8 %8 to i32
  %10 = icmp eq i32 %9, 3
  br i1 %10, label %19, label %11

11:                                               ; preds = %1
  %12 = getelementptr inbounds nuw %"class.clang::format::UnwrappedLineParser", ptr %4, i32 0, i32 14
  %13 = load ptr, ptr %12, align 8
  %14 = call noundef zeroext i1 @_ZNK5clang6format11FormatStyle12isJavaScriptEv(ptr noundef nonnull align 8 dereferenceable(936) %13)
  br i1 %14, label %19, label %15

15:                                               ; preds = %11
  %16 = getelementptr inbounds nuw %"class.clang::format::UnwrappedLineParser", ptr %4, i32 0, i32 14
  %17 = load ptr, ptr %16, align 8
  %18 = call noundef zeroext i1 @_ZNK5clang6format11FormatStyle8isCSharpEv(ptr noundef nonnull align 8 dereferenceable(936) %17)
  br i1 %18, label %19, label %25

19:                                               ; preds = %15, %11, %1
  %20 = getelementptr inbounds nuw %"class.clang::format::UnwrappedLineParser", ptr %4, i32 0, i32 8
  %21 = load ptr, ptr %20, align 8
  %22 = call noundef zeroext i1 @_ZNK5clang6format11FormatToken2isENS_3tok9TokenKindE(ptr noundef nonnull align 8 dereferenceable(305) %21, i16 noundef zeroext 63)
  br i1 %22, label %23, label %24

23:                                               ; preds = %19
  call void @_ZN5clang6format19UnwrappedLineParser9nextTokenEi(ptr noundef nonnull align 8 dereferenceable(3592) %4, i32 noundef 0)
  br label %24

24:                                               ; preds = %23, %19
  call void @_ZN5clang6format19UnwrappedLineParser16addUnwrappedLineENS1_9LineLevelE(ptr noundef nonnull align 8 dereferenceable(3592) %4, i32 noundef 0)
  store i1 true, ptr %2, align 1
  br label %26

25:                                               ; preds = %15
  store i1 false, ptr %2, align 1
  br label %26

26:                                               ; preds = %25, %24
  %27 = load i1, ptr %2, align 1
  ret i1 %27
}