; Function Attrs: mustprogress nounwind uwtable
define dso_local noundef zeroext i1 @_ZN5clang6format19UnwrappedLineParser15parseStructLikeEv(ptr noundef nonnull align 8 dereferenceable(3592) %0) local_unnamed_addr #0 align 2 {
  tail call void @_ZN5clang6format19UnwrappedLineParser11parseRecordEb(ptr noundef nonnull align 8 dereferenceable(3592) %0, i1 noundef zeroext false)
  %2 = getelementptr inbounds nuw i8, ptr %0, i64 1976
  %3 = load ptr, ptr %2, align 8
  %4 = getelementptr inbounds nuw i8, ptr %3, i64 422
  %5 = load i8, ptr %4, align 2
  %.off = add i8 %5, -2
  %switch = icmp ult i8 %.off, 3
  br i1 %switch, label %6, label %14

6:                                                ; preds = %1
  %7 = getelementptr inbounds nuw i8, ptr %0, i64 984
  %8 = load ptr, ptr %7, align 8
  %9 = getelementptr inbounds nuw i8, ptr %8, i64 16
  %10 = load i16, ptr %9, align 8
  %11 = icmp eq i16 %10, 63
  br i1 %11, label %12, label %13

12:                                               ; preds = %6
  tail call void @_ZN5clang6format19UnwrappedLineParser9nextTokenEi(ptr noundef nonnull align 8 dereferenceable(3592) %0, i32 noundef 0)
  br label %13

13:                                               ; preds = %12, %6
  tail call void @_ZN5clang6format19UnwrappedLineParser16addUnwrappedLineENS1_9LineLevelE(ptr noundef nonnull align 8 dereferenceable(3592) %0, i32 noundef 0)
  br label %14

14:                                               ; preds = %1, %13
  ret i1 %switch
}